target datalayout = "e-m:e-p270:32:32-p271:32:32-p272:64:64-i64:64-i128:128-f80:128-n8:16:32:64-S128"
target triple = "x86_64-pc-linux-gnu"

%struct.DES_ks = type { [16 x %union.anon] }
%union.anon = type { [2 x i32] }

@.str.24 = private unnamed_addr constant [26 x i8] c"../openssl/test/destest.c\00", align 1
@.str.25 = private unnamed_addr constant [4 x i8] c"out\00", align 1
@.str.26 = private unnamed_addr constant [15 x i8] c"cipher_data[i]\00", align 1
@.str.27 = private unnamed_addr constant [31 x i8] c"Encryption error %2d k=%s p=%s\00", align 1
@.str.28 = private unnamed_addr constant [3 x i8] c"in\00", align 1
@.str.29 = private unnamed_addr constant [6 x i8] c"outin\00", align 1
@.str.30 = private unnamed_addr constant [31 x i8] c"Decryption error %2d k=%s p=%s\00", align 1
@pt.f = internal global ptr @.str.31, align 8

; Function Attrs: nounwind uwtable
define internal ptr @pt(ptr noundef %0, ptr noundef %1) #0 {
  %3 = alloca ptr, align 8
  %4 = alloca ptr, align 8
  %5 = alloca ptr, align 8
  %6 = alloca i32, align 4
  store ptr %0, ptr %3, align 8, !tbaa !22
  store ptr %1, ptr %4, align 8, !tbaa !22
  call void @llvm.lifetime.start.p0(i64 8, ptr %5) #6
  call void @llvm.lifetime.start.p0(i64 4, ptr %6) #6
  %7 = load ptr, ptr %4, align 8, !tbaa !22
  %8 = getelementptr inbounds i8, ptr %7, i64 0
  store ptr %8, ptr %5, align 8, !tbaa !22
  store i32 0, ptr %6, align 4, !tbaa !4
  br label %9

9:                                                ; preds = %47, %2
  %10 = load i32, ptr %6, align 4, !tbaa !4
  %11 = icmp slt i32 %10, 8
  br i1 %11, label %12, label %50

12:                                               ; preds = %9
  %13 = load ptr, ptr @pt.f, align 8, !tbaa !22
  %14 = load ptr, ptr %3, align 8, !tbaa !22
  %15 = load i32, ptr %6, align 4, !tbaa !4
  %16 = sext i32 %15 to i64
  %17 = getelementptr inbounds i8, ptr %14, i64 %16
  %18 = load i8, ptr %17, align 1, !tbaa !20
  %19 = zext i8 %18 to i32
  %20 = ashr i32 %19, 4
  %21 = and i32 %20, 15
  %22 = sext i32 %21 to i64
  %23 = getelementptr inbounds i8, ptr %13, i64 %22
  %24 = load i8, ptr %23, align 1, !tbaa !20
  %25 = load ptr, ptr %5, align 8, !tbaa !22
  %26 = load i32, ptr %6, align 4, !tbaa !4
  %27 = mul nsw i32 %26, 2
  %28 = sext i32 %27 to i64
  %29 = getelementptr inbounds i8, ptr %25, i64 %28
  store i8 %24, ptr %29, align 1, !tbaa !20
  %30 = load ptr, ptr @pt.f, align 8, !tbaa !22
  %31 = load ptr, ptr %3, align 8, !tbaa !22
  %32 = load i32, ptr %6, align 4, !tbaa !4
  %33 = sext i32 %32 to i64
  %34 = getelementptr inbounds i8, ptr %31, i64 %33
  %35 = load i8, ptr %34, align 1, !tbaa !20
  %36 = zext i8 %35 to i32
  %37 = and i32 %36, 15
  %38 = sext i32 %37 to i64
  %39 = getelementptr inbounds i8, ptr %30, i64 %38
  %40 = load i8, ptr %39, align 1, !tbaa !20
  %41 = load ptr, ptr %5, align 8, !tbaa !22
  %42 = load i32, ptr %6, align 4, !tbaa !4
  %43 = mul nsw i32 %42, 2
  %44 = add nsw i32 %43, 1
  %45 = sext i32 %44 to i64
  %46 = getelementptr inbounds i8, ptr %41, i64 %45
  store i8 %40, ptr %46, align 1, !tbaa !20
  br label %47

47:                                               ; preds = %12
  %48 = load i32, ptr %6, align 4, !tbaa !4
  %49 = add nsw i32 %48, 1
  store i32 %49, ptr %6, align 4, !tbaa !4
  br label %9, !llvm.loop !26

50:                                               ; preds = %9
  %51 = load ptr, ptr %5, align 8, !tbaa !22
  %52 = getelementptr inbounds i8, ptr %51, i64 16
  store i8 0, ptr %52, align 1, !tbaa !20
  %53 = load ptr, ptr %5, align 8, !tbaa !22
  call void @llvm.lifetime.end.p0(i64 4, ptr %6) #6
  call void @llvm.lifetime.end.p0(i64 8, ptr %5) #6
  ret ptr %53
}

; Function Attrs: nounwind uwtable
define internal i32 @test_des_ecb(i32 noundef %0) #0 {
  %2 = alloca i32, align 4
  %3 = alloca i32, align 4
  %4 = alloca %struct.DES_ks, align 4
  %5 = alloca [8 x i8], align 1
  %6 = alloca [8 x i8], align 1
  %7 = alloca [8 x i8], align 1
  %8 = alloca [20 x i8], align 16
  %9 = alloca [20 x i8], align 16
  %10 = alloca i32, align 4
  store i32 %0, ptr %3, align 4, !tbaa !4
  call void @llvm.lifetime.start.p0(i64 128, ptr %4) #6
  call void @llvm.lifetime.start.p0(i64 8, ptr %5) #6
  call void @llvm.lifetime.start.p0(i64 8, ptr %6) #6
  call void @llvm.lifetime.start.p0(i64 8, ptr %7) #6
  call void @llvm.lifetime.start.p0(i64 20, ptr %8) #6
  call void @llvm.lifetime.start.p0(i64 20, ptr %9) #6
  %11 = load i32, ptr %3, align 4, !tbaa !4
  %12 = sext i32 %11 to i64
  %13 = getelementptr inbounds [34 x [8 x i8]], ptr @key_data, i64 0, i64 %12
  call void @DES_set_key_unchecked(ptr noundef %13, ptr noundef %4)
  %14 = getelementptr inbounds [8 x i8], ptr %5, i64 0, i64 0
  %15 = load i32, ptr %3, align 4, !tbaa !4
  %16 = sext i32 %15 to i64
  %17 = getelementptr inbounds [34 x [8 x i8]], ptr @plain_data, i64 0, i64 %16
  %18 = getelementptr inbounds [8 x i8], ptr %17, i64 0, i64 0
  call void @llvm.memcpy.p0.p0.i64(ptr align 1 %14, ptr align 8 %18, i64 8, i1 false)
  %19 = getelementptr inbounds [8 x i8], ptr %6, i64 0, i64 0
  call void @llvm.memset.p0.i64(ptr align 1 %19, i8 0, i64 8, i1 false)
  %20 = getelementptr inbounds [8 x i8], ptr %7, i64 0, i64 0
  call void @llvm.memset.p0.i64(ptr align 1 %20, i8 0, i64 8, i1 false)
  call void @DES_ecb_encrypt(ptr noundef %5, ptr noundef %6, ptr noundef %4, i32 noundef 1)
  call void @DES_ecb_encrypt(ptr noundef %6, ptr noundef %7, ptr noundef %4, i32 noundef 0)
  %21 = getelementptr inbounds [8 x i8], ptr %6, i64 0, i64 0
  %22 = load i32, ptr %3, align 4, !tbaa !4
  %23 = sext i32 %22 to i64
  %24 = getelementptr inbounds [34 x [8 x i8]], ptr @cipher_data, i64 0, i64 %23
  %25 = getelementptr inbounds [8 x i8], ptr %24, i64 0, i64 0
  %26 = call i32 @test_mem_eq(ptr noundef @.str.24, i32 noundef 331, ptr noundef @.str.25, ptr noundef @.str.26, ptr noundef %21, i64 noundef 8, ptr noundef %25, i64 noundef 8)
  %27 = icmp ne i32 %26, 0
  br i1 %27, label %40, label %28

28:                                               ; preds = %1
  %29 = load i32, ptr %3, align 4, !tbaa !4
  %30 = add nsw i32 %29, 1
  %31 = load i32, ptr %3, align 4, !tbaa !4
  %32 = sext i32 %31 to i64
  %33 = getelementptr inbounds [34 x [8 x i8]], ptr @key_data, i64 0, i64 %32
  %34 = getelementptr inbounds [8 x i8], ptr %33, i64 0, i64 0
  %35 = getelementptr inbounds [20 x i8], ptr %8, i64 0, i64 0
  %36 = call ptr @pt(ptr noundef %34, ptr noundef %35)
  %37 = getelementptr inbounds [8 x i8], ptr %5, i64 0, i64 0
  %38 = getelementptr inbounds [20 x i8], ptr %9, i64 0, i64 0
  %39 = call ptr @pt(ptr noundef %37, ptr noundef %38)
  call void (ptr, i32, ptr, ...) @test_info(ptr noundef @.str.24, i32 noundef 333, ptr noundef @.str.27, i32 noundef %30, ptr noundef %36, ptr noundef %39)
  store i32 0, ptr %2, align 4
  store i32 1, ptr %10, align 4
  br label %58

40:                                               ; preds = %1
  %41 = getelementptr inbounds [8 x i8], ptr %5, i64 0, i64 0
  %42 = getelementptr inbounds [8 x i8], ptr %7, i64 0, i64 0
  %43 = call i32 @test_mem_eq(ptr noundef @.str.24, i32 noundef 336, ptr noundef @.str.28, ptr noundef @.str.29, ptr noundef %41, i64 noundef 8, ptr noundef %42, i64 noundef 8)
  %44 = icmp ne i32 %43, 0
  br i1 %44, label %57, label %45

45:                                               ; preds = %40
  %46 = load i32, ptr %3, align 4, !tbaa !4
  %47 = add nsw i32 %46, 1
  %48 = load i32, ptr %3, align 4, !tbaa !4
  %49 = sext i32 %48 to i64
  %50 = getelementptr inbounds [34 x [8 x i8]], ptr @key_data, i64 0, i64 %49
  %51 = getelementptr inbounds [8 x i8], ptr %50, i64 0, i64 0
  %52 = getelementptr inbounds [20 x i8], ptr %8, i64 0, i64 0
  %53 = call ptr @pt(ptr noundef %51, ptr noundef %52)
  %54 = getelementptr inbounds [8 x i8], ptr %6, i64 0, i64 0
  %55 = getelementptr inbounds [20 x i8], ptr %9, i64 0, i64 0
  %56 = call ptr @pt(ptr noundef %54, ptr noundef %55)
  call void (ptr, i32, ptr, ...) @test_info(ptr noundef @.str.24, i32 noundef 338, ptr noundef @.str.30, i32 noundef %47, ptr noundef %53, ptr noundef %56)
  store i32 0, ptr %2, align 4
  store i32 1, ptr %10, align 4
  br label %58

57:                                               ; preds = %40
  store i32 1, ptr %2, align 4
  store i32 1, ptr %10, align 4
  br label %58

58:                                               ; preds = %57, %45, %28
  call void @llvm.lifetime.end.p0(i64 20, ptr %9) #6
  call void @llvm.lifetime.end.p0(i64 20, ptr %8) #6
  call void @llvm.lifetime.end.p0(i64 8, ptr %7) #6
  call void @llvm.lifetime.end.p0(i64 8, ptr %6) #6
  call void @llvm.lifetime.end.p0(i64 8, ptr %5) #6
  call void @llvm.lifetime.end.p0(i64 128, ptr %4) #6
  %59 = load i32, ptr %2, align 4
  ret i32 %59
}