; Function Attrs: nounwind uwtable
define internal range(i32 0, 2) i32 @test_des_ecb(i32 noundef %0) #0 {
  %2 = alloca %struct.DES_ks, align 4
  %3 = alloca [8 x i8], align 8
  %4 = alloca [8 x i8], align 8
  %5 = alloca [8 x i8], align 8
  %6 = alloca [20 x i8], align 16
  %7 = alloca [20 x i8], align 16
  call void @llvm.lifetime.start.p0(i64 128, ptr nonnull %2) #6
  call void @llvm.lifetime.start.p0(i64 8, ptr nonnull %3) #6
  call void @llvm.lifetime.start.p0(i64 8, ptr nonnull %4) #6
  call void @llvm.lifetime.start.p0(i64 8, ptr nonnull %5) #6
  call void @llvm.lifetime.start.p0(i64 20, ptr nonnull %6) #6
  call void @llvm.lifetime.start.p0(i64 20, ptr nonnull %7) #6
  %8 = sext i32 %0 to i64
  %9 = getelementptr inbounds [34 x [8 x i8]], ptr @key_data, i64 0, i64 %8
  call void @DES_set_key_unchecked(ptr noundef nonnull %9, ptr noundef nonnull %2) #6
  %10 = getelementptr inbounds [34 x [8 x i8]], ptr @plain_data, i64 0, i64 %8
  %11 = load i64, ptr %10, align 8
  store i64 %11, ptr %3, align 8
  store i64 0, ptr %4, align 8
  store i64 0, ptr %5, align 8
  call void @DES_ecb_encrypt(ptr noundef nonnull %3, ptr noundef nonnull %4, ptr noundef nonnull %2, i32 noundef 1) #6
  call void @DES_ecb_encrypt(ptr noundef nonnull %4, ptr noundef nonnull %5, ptr noundef nonnull %2, i32 noundef 0) #6
  %12 = getelementptr inbounds [34 x [8 x i8]], ptr @cipher_data, i64 0, i64 %8
  %13 = call i32 @test_mem_eq(ptr noundef nonnull @.str.24, i32 noundef 331, ptr noundef nonnull @.str.25, ptr noundef nonnull @.str.26, ptr noundef nonnull %4, i64 noundef 8, ptr noundef nonnull %12, i64 noundef 8) #6
  %.not = icmp eq i32 %13, 0
  br i1 %.not, label %.preheader, label %46

.preheader:                                       ; preds = %1, %.preheader
  %indvars.iv.i = phi i64 [ %indvars.iv.next.i, %.preheader ], [ 0, %1 ]
  %14 = getelementptr inbounds nuw i8, ptr %9, i64 %indvars.iv.i
  %15 = load i8, ptr %14, align 1, !tbaa !4
  %16 = lshr i8 %15, 4
  %17 = zext nneg i8 %16 to i64
  %18 = getelementptr inbounds nuw i8, ptr @.str.31, i64 %17
  %19 = load i8, ptr %18, align 1, !tbaa !4
  %20 = shl nuw nsw i64 %indvars.iv.i, 1
  %21 = getelementptr inbounds nuw i8, ptr %6, i64 %20
  store i8 %19, ptr %21, align 2, !tbaa !4
  %22 = and i8 %15, 15
  %23 = zext nneg i8 %22 to i64
  %24 = getelementptr inbounds nuw i8, ptr @.str.31, i64 %23
  %25 = load i8, ptr %24, align 1, !tbaa !4
  %26 = or disjoint i64 %20, 1
  %27 = getelementptr inbounds nuw i8, ptr %6, i64 %26
  store i8 %25, ptr %27, align 1, !tbaa !4
  %indvars.iv.next.i = add nuw nsw i64 %indvars.iv.i, 1
  %exitcond.not.i = icmp eq i64 %indvars.iv.next.i, 8
  br i1 %exitcond.not.i, label %pt.exit, label %.preheader, !llvm.loop !7

pt.exit:                                          ; preds = %.preheader
  %28 = getelementptr inbounds nuw i8, ptr %6, i64 16
  store i8 0, ptr %28, align 16, !tbaa !4
  br label %29

29:                                               ; preds = %29, %pt.exit
  %indvars.iv.i9 = phi i64 [ 0, %pt.exit ], [ %indvars.iv.next.i10, %29 ]
  %30 = getelementptr inbounds nuw i8, ptr %3, i64 %indvars.iv.i9
  %31 = load i8, ptr %30, align 1, !tbaa !4
  %32 = lshr i8 %31, 4
  %33 = zext nneg i8 %32 to i64
  %34 = getelementptr inbounds nuw i8, ptr @.str.31, i64 %33
  %35 = load i8, ptr %34, align 1, !tbaa !4
  %36 = shl nuw nsw i64 %indvars.iv.i9, 1
  %37 = getelementptr inbounds nuw i8, ptr %7, i64 %36
  store i8 %35, ptr %37, align 2, !tbaa !4
  %38 = and i8 %31, 15
  %39 = zext nneg i8 %38 to i64
  %40 = getelementptr inbounds nuw i8, ptr @.str.31, i64 %39
  %41 = load i8, ptr %40, align 1, !tbaa !4
  %42 = or disjoint i64 %36, 1
  %43 = getelementptr inbounds nuw i8, ptr %7, i64 %42
  store i8 %41, ptr %43, align 1, !tbaa !4
  %indvars.iv.next.i10 = add nuw nsw i64 %indvars.iv.i9, 1
  %exitcond.not.i11 = icmp eq i64 %indvars.iv.next.i10, 8
  br i1 %exitcond.not.i11, label %pt.exit12, label %29, !llvm.loop !7

pt.exit12:                                        ; preds = %29
  %44 = add nsw i32 %0, 1
  %45 = getelementptr inbounds nuw i8, ptr %7, i64 16
  store i8 0, ptr %45, align 16, !tbaa !4
  call void (ptr, i32, ptr, ...) @test_info(ptr noundef nonnull @.str.24, i32 noundef 333, ptr noundef nonnull @.str.27, i32 noundef %44, ptr noundef nonnull %6, ptr noundef nonnull %7) #6
  br label %80

46:                                               ; preds = %1
  %47 = call i32 @test_mem_eq(ptr noundef nonnull @.str.24, i32 noundef 336, ptr noundef nonnull @.str.28, ptr noundef nonnull @.str.29, ptr noundef nonnull %3, i64 noundef 8, ptr noundef nonnull %5, i64 noundef 8) #6
  %.not8 = icmp eq i32 %47, 0
  br i1 %.not8, label %.preheader21, label %80

.preheader21:                                     ; preds = %46, %.preheader21
  %indvars.iv.i13 = phi i64 [ %indvars.iv.next.i14, %.preheader21 ], [ 0, %46 ]
  %48 = getelementptr inbounds nuw i8, ptr %9, i64 %indvars.iv.i13
  %49 = load i8, ptr %48, align 1, !tbaa !4
  %50 = lshr i8 %49, 4
  %51 = zext nneg i8 %50 to i64
  %52 = getelementptr inbounds nuw i8, ptr @.str.31, i64 %51
  %53 = load i8, ptr %52, align 1, !tbaa !4
  %54 = shl nuw nsw i64 %indvars.iv.i13, 1
  %55 = getelementptr inbounds nuw i8, ptr %6, i64 %54
  store i8 %53, ptr %55, align 2, !tbaa !4
  %56 = and i8 %49, 15
  %57 = zext nneg i8 %56 to i64
  %58 = getelementptr inbounds nuw i8, ptr @.str.31, i64 %57
  %59 = load i8, ptr %58, align 1, !tbaa !4
  %60 = or disjoint i64 %54, 1
  %61 = getelementptr inbounds nuw i8, ptr %6, i64 %60
  store i8 %59, ptr %61, align 1, !tbaa !4
  %indvars.iv.next.i14 = add nuw nsw i64 %indvars.iv.i13, 1
  %exitcond.not.i15 = icmp eq i64 %indvars.iv.next.i14, 8
  br i1 %exitcond.not.i15, label %pt.exit16, label %.preheader21, !llvm.loop !7

pt.exit16:                                        ; preds = %.preheader21
  %62 = getelementptr inbounds nuw i8, ptr %6, i64 16
  store i8 0, ptr %62, align 16, !tbaa !4
  br label %63

63:                                               ; preds = %63, %pt.exit16
  %indvars.iv.i17 = phi i64 [ 0, %pt.exit16 ], [ %indvars.iv.next.i18, %63 ]
  %64 = getelementptr inbounds nuw i8, ptr %4, i64 %indvars.iv.i17
  %65 = load i8, ptr %64, align 1, !tbaa !4
  %66 = lshr i8 %65, 4
  %67 = zext nneg i8 %66 to i64
  %68 = getelementptr inbounds nuw i8, ptr @.str.31, i64 %67
  %69 = load i8, ptr %68, align 1, !tbaa !4
  %70 = shl nuw nsw i64 %indvars.iv.i17, 1
  %71 = getelementptr inbounds nuw i8, ptr %7, i64 %70
  store i8 %69, ptr %71, align 2, !tbaa !4
  %72 = and i8 %65, 15
  %73 = zext nneg i8 %72 to i64
  %74 = getelementptr inbounds nuw i8, ptr @.str.31, i64 %73
  %75 = load i8, ptr %74, align 1, !tbaa !4
  %76 = or disjoint i64 %70, 1
  %77 = getelementptr inbounds nuw i8, ptr %7, i64 %76
  store i8 %75, ptr %77, align 1, !tbaa !4
  %indvars.iv.next.i18 = add nuw nsw i64 %indvars.iv.i17, 1
  %exitcond.not.i19 = icmp eq i64 %indvars.iv.next.i18, 8
  br i1 %exitcond.not.i19, label %pt.exit20, label %63, !llvm.loop !7

pt.exit20:                                        ; preds = %63
  %78 = add nsw i32 %0, 1
  %79 = getelementptr inbounds nuw i8, ptr %7, i64 16
  store i8 0, ptr %79, align 16, !tbaa !4
  call void (ptr, i32, ptr, ...) @test_info(ptr noundef nonnull @.str.24, i32 noundef 338, ptr noundef nonnull @.str.30, i32 noundef %78, ptr noundef nonnull %6, ptr noundef nonnull %7) #6
  br label %80

80:                                               ; preds = %46, %pt.exit20, %pt.exit12
  %.0 = phi i32 [ 0, %pt.exit20 ], [ 0, %pt.exit12 ], [ 1, %46 ]
  call void @llvm.lifetime.end.p0(i64 20, ptr nonnull %7) #6
  call void @llvm.lifetime.end.p0(i64 20, ptr nonnull %6) #6
  call void @llvm.lifetime.end.p0(i64 8, ptr nonnull %5) #6
  call void @llvm.lifetime.end.p0(i64 8, ptr nonnull %4) #6
  call void @llvm.lifetime.end.p0(i64 8, ptr nonnull %3) #6
  call void @llvm.lifetime.end.p0(i64 128, ptr nonnull %2) #6
  ret i32 %.0
}